target datalayout = "e-m:e-p270:32:32-p271:32:32-p272:64:64-i64:64-i128:128-f80:128-n8:16:32:64-S128"
target triple = "x86_64-pc-linux-gnu"

%class.QList = type { %union.anon.4 }
%union.anon.4 = type { %struct.QListData }
%struct.QListData = type { ptr }

; Function Attrs: mustprogress uwtable
define linkonce_odr void @_ZN7QWidget8setFocusEv(ptr noundef nonnull align 8 dereferenceable(48) %0) #2 comdat align 2 {
  %2 = alloca ptr, align 8
  store ptr %0, ptr %2, align 8
  %3 = load ptr, ptr %2, align 8
  call void @_ZN7QWidget8setFocusEN2Qt11FocusReasonE(ptr noundef nonnull align 8 dereferenceable(48) %3, i32 noundef 7)
  ret void
}

; Function Attrs: mustprogress uwtable
define void @_ZN10SearchMenu11changeFocusEi(ptr noundef nonnull align 8 dereferenceable(72) %0, i32 noundef %1) #2 align 2 personality ptr @__gxx_personality_v0 {
  %3 = alloca ptr, align 8
  %4 = alloca i32, align 4
  %5 = alloca ptr, align 8
  %6 = alloca i32, align 4
  %7 = alloca %class.QList, align 8
  %8 = alloca ptr, align 8
  %9 = alloca i32, align 4
  store ptr %0, ptr %3, align 8
  store i32 %1, ptr %4, align 4
  %10 = load ptr, ptr %3, align 8
  call void @_ZN7QWidget8setFocusEv(ptr noundef nonnull align 8 dereferenceable(48) %10)
  store ptr null, ptr %5, align 8
  %11 = load i32, ptr %4, align 4
  call void @_ZNK7QWidget7actionsEv(ptr dead_on_unwind writable sret(%class.QList) align 8 %7, ptr noundef nonnull align 8 dereferenceable(48) %10)
  %12 = invoke noundef i32 @_ZNK10SearchMenu17nextEnabledActionEiiRK5QListIP7QActionERS2_(ptr noundef nonnull align 8 dereferenceable(72) %10, i32 noundef %11, i32 noundef 0, ptr noundef nonnull align 8 dereferenceable(8) %7, ptr noundef nonnull align 8 dereferenceable(8) %5)
          to label %13 unwind label %18

13:                                               ; preds = %2
  call void @_ZN5QListIP7QActionED2Ev(ptr noundef nonnull align 8 dereferenceable(8) %7) #9
  store i32 %12, ptr %6, align 4
  %14 = load i32, ptr %6, align 4
  %15 = icmp ne i32 %14, -1
  br i1 %15, label %16, label %22

16:                                               ; preds = %13
  %17 = load ptr, ptr %5, align 8
  call void @_ZN5QMenu15setActiveActionEP7QAction(ptr noundef nonnull align 8 dereferenceable(48) %10, ptr noundef %17)
  br label %22

18:                                               ; preds = %2
  %19 = landingpad { ptr, i32 }
          cleanup
  %20 = extractvalue { ptr, i32 } %19, 0
  store ptr %20, ptr %8, align 8
  %21 = extractvalue { ptr, i32 } %19, 1
  store i32 %21, ptr %9, align 4
  call void @_ZN5QListIP7QActionED2Ev(ptr noundef nonnull align 8 dereferenceable(8) %7) #9
  br label %23

22:                                               ; preds = %16, %13
  ret void

23:                                               ; preds = %18
  %24 = load ptr, ptr %8, align 8
  %25 = load i32, ptr %9, align 4
  %26 = insertvalue { ptr, i32 } poison, ptr %24, 0
  %27 = insertvalue { ptr, i32 } %26, i32 %25, 1
  resume { ptr, i32 } %27
}