; Function Attrs: mustprogress uwtable
define void @_ZN10SearchMenu11changeFocusEi(ptr noundef nonnull align 8 dereferenceable(72) %0, i32 noundef %1) local_unnamed_addr #2 align 2 personality ptr @__gxx_personality_v0 {
  %3 = alloca ptr, align 8
  %4 = alloca %class.QList, align 8
  tail call void @_ZN7QWidget8setFocusEN2Qt11FocusReasonE(ptr noundef nonnull align 8 dereferenceable(48) %0, i32 noundef 7)
  store ptr null, ptr %3, align 8
  call void @_ZNK7QWidget7actionsEv(ptr dead_on_unwind nonnull writable sret(%class.QList) align 8 %4, ptr noundef nonnull align 8 dereferenceable(48) %0)
  %5 = invoke noundef i32 @_ZNK10SearchMenu17nextEnabledActionEiiRK5QListIP7QActionERS2_(ptr nonnull align 8 poison, i32 noundef %1, i32 noundef 0, ptr noundef nonnull align 8 dereferenceable(8) %4, ptr noundef nonnull align 8 dereferenceable(8) %3)
          to label %6 unwind label %16

6:                                                ; preds = %2
  %7 = load ptr, ptr %4, align 8
  %8 = load atomic i32, ptr %7 monotonic, align 4
  switch i32 %8, label %_ZN9QtPrivate8RefCount5derefEv.exit.i [
    i32 0, label %_ZN9QtPrivate8RefCount5derefEv.exit.thread2.i
    i32 -1, label %_ZN5QListIP7QActionED2Ev.exit
  ]

_ZN9QtPrivate8RefCount5derefEv.exit.i:            ; preds = %6
  %9 = atomicrmw sub ptr %7, i32 1 seq_cst, align 4
  %.not.i = icmp eq i32 %9, 1
  br i1 %.not.i, label %_ZN9QtPrivate8RefCount5derefEv.exit._ZN9QtPrivate8RefCount5derefEv.exit.thread2_crit_edge.i, label %_ZN5QListIP7QActionED2Ev.exit

_ZN9QtPrivate8RefCount5derefEv.exit._ZN9QtPrivate8RefCount5derefEv.exit.thread2_crit_edge.i: ; preds = %_ZN9QtPrivate8RefCount5derefEv.exit.i
  %.pre.i = load ptr, ptr %4, align 8
  br label %_ZN9QtPrivate8RefCount5derefEv.exit.thread2.i

_ZN9QtPrivate8RefCount5derefEv.exit.thread2.i:    ; preds = %_ZN9QtPrivate8RefCount5derefEv.exit._ZN9QtPrivate8RefCount5derefEv.exit.thread2_crit_edge.i, %6
  %10 = phi ptr [ %.pre.i, %_ZN9QtPrivate8RefCount5derefEv.exit._ZN9QtPrivate8RefCount5derefEv.exit.thread2_crit_edge.i ], [ %7, %6 ]
  invoke void @_ZN9QListData7disposeEPNS_4DataE(ptr noundef %10)
          to label %_ZN5QListIP7QActionED2Ev.exit unwind label %11

11:                                               ; preds = %_ZN9QtPrivate8RefCount5derefEv.exit.thread2.i
  %12 = landingpad { ptr, i32 }
          catch ptr null
  %13 = extractvalue { ptr, i32 } %12, 0
  call void @__clang_call_terminate(ptr %13) #14
  unreachable

_ZN5QListIP7QActionED2Ev.exit:                    ; preds = %6, %_ZN9QtPrivate8RefCount5derefEv.exit.i, %_ZN9QtPrivate8RefCount5derefEv.exit.thread2.i
  %.not = icmp eq i32 %5, -1
  br i1 %.not, label %18, label %14

14:                                               ; preds = %_ZN5QListIP7QActionED2Ev.exit
  %15 = load ptr, ptr %3, align 8
  call void @_ZN5QMenu15setActiveActionEP7QAction(ptr noundef nonnull align 8 dereferenceable(48) %0, ptr noundef %15)
  br label %18

16:                                               ; preds = %2
  %17 = landingpad { ptr, i32 }
          cleanup
  call void @_ZN5QListIP7QActionED2Ev(ptr noundef nonnull align 8 dereferenceable(8) %4) #11
  resume { ptr, i32 } %17

18:                                               ; preds = %14, %_ZN5QListIP7QActionED2Ev.exit
  ret void
}